; Function Attrs: mustprogress uwtable
define noundef zeroext i1 @_ZNK5osgeo4proj4util11IComparable14isEquivalentToEPKS2_NS2_9CriterionERKSt10shared_ptrINS0_2io15DatabaseContextEE(ptr noundef nonnull align 8 dereferenceable(8) %0, ptr noundef %1, i32 noundef %2, ptr noundef nonnull align 8 dereferenceable(16) %3) local_unnamed_addr #0 align 2 {
  %5 = icmp eq ptr %0, %1
  br i1 %5, label %11, label %6

6:                                                ; preds = %4
  %7 = load ptr, ptr %0, align 8
  %8 = getelementptr inbounds i8, ptr %7, i64 16
  %9 = load ptr, ptr %8, align 8
  %10 = tail call noundef zeroext i1 %9(ptr noundef nonnull align 8 dereferenceable(8) %0, ptr noundef %1, i32 noundef %2, ptr noundef nonnull align 8 dereferenceable(16) %3)
  br label %11

11:                                               ; preds = %4, %6
  %.0 = phi i1 [ %10, %6 ], [ true, %4 ]
  ret i1 %.0
}